target datalayout = "e-m:e-p270:32:32-p271:32:32-p272:64:64-i64:64-i128:128-f80:128-n8:16:32:64-S128"
target triple = "x86_64-pc-linux-gnu"

%struct.AVFilterPad = type { ptr, i32, i32, %union.anon, ptr, ptr, ptr }
%union.anon = type { ptr }
%struct.AVChannelLayout = type { i32, i32, %union.anon.2, ptr }
%union.anon.2 = type { i64 }
%struct.AVFilterContext = type { ptr, ptr, ptr, ptr, ptr, i32, ptr, ptr, i32, ptr, ptr, i32, i32, ptr, ptr, ptr, ptr, i32, ptr, i32, i32 }
%struct.ChannelSplitContext = type { ptr, %struct.AVChannelLayout, ptr, ptr }

@.str.8 = private unnamed_addr constant [4 x i8] c"all\00", align 1
@.str.10 = private unnamed_addr constant [55 x i8] c"Channel name '%s' not present in channel layout '%s'.\0A\00", align 1

; Function Attrs: cold nounwind optsize uwtable
define internal i32 @init(ptr noundef %0) #0 {
  %2 = alloca i32, align 4
  %3 = alloca ptr, align 8
  %4 = alloca ptr, align 8
  %5 = alloca %struct.AVChannelLayout, align 8
  %6 = alloca i32, align 4
  %7 = alloca i32, align 4
  %8 = alloca i32, align 4
  %9 = alloca i32, align 4
  %10 = alloca i32, align 4
  %11 = alloca [64 x i8], align 16
  %12 = alloca %struct.AVFilterPad, align 8
  %13 = alloca [128 x i8], align 16
  store ptr %0, ptr %3, align 8, !tbaa !4
  call void @llvm.lifetime.start.p0(i64 8, ptr %4) #7
  %14 = load ptr, ptr %3, align 8, !tbaa !4
  %15 = getelementptr inbounds nuw %struct.AVFilterContext, ptr %14, i32 0, i32 9
  %16 = load ptr, ptr %15, align 8, !tbaa !9
  store ptr %16, ptr %4, align 8, !tbaa !22
  call void @llvm.lifetime.start.p0(i64 24, ptr %5) #7
  call void @llvm.memset.p0.i64(ptr align 8 %5, i8 0, i64 24, i1 false)
  call void @llvm.lifetime.start.p0(i64 4, ptr %6) #7
  store i32 0, ptr %6, align 4, !tbaa !24
  call void @llvm.lifetime.start.p0(i64 4, ptr %7) #7
  store i32 0, ptr %7, align 4, !tbaa !24
  call void @llvm.lifetime.start.p0(i64 4, ptr %8) #7
  %17 = load ptr, ptr %4, align 8, !tbaa !22
  %18 = getelementptr inbounds nuw %struct.ChannelSplitContext, ptr %17, i32 0, i32 2
  %19 = load ptr, ptr %18, align 8, !tbaa !25
  %20 = call i32 @strcmp(ptr noundef %19, ptr noundef @.str.8) #8
  %21 = icmp ne i32 %20, 0
  br i1 %21, label %29, label %22

22:                                               ; preds = %1
  %23 = load ptr, ptr %4, align 8, !tbaa !22
  %24 = getelementptr inbounds nuw %struct.ChannelSplitContext, ptr %23, i32 0, i32 1
  %25 = call i32 @av_channel_layout_copy(ptr noundef %5, ptr noundef %24)
  store i32 %25, ptr %7, align 4, !tbaa !24
  %26 = icmp slt i32 %25, 0
  br i1 %26, label %27, label %28

27:                                               ; preds = %22
  br label %121

28:                                               ; preds = %22
  store i32 1, ptr %6, align 4, !tbaa !24
  br label %37

29:                                               ; preds = %1
  %30 = load ptr, ptr %4, align 8, !tbaa !22
  %31 = getelementptr inbounds nuw %struct.ChannelSplitContext, ptr %30, i32 0, i32 2
  %32 = load ptr, ptr %31, align 8, !tbaa !25
  %33 = call i32 @av_channel_layout_from_string(ptr noundef %5, ptr noundef %32)
  store i32 %33, ptr %7, align 4, !tbaa !24
  %34 = icmp slt i32 %33, 0
  br i1 %34, label %35, label %36

35:                                               ; preds = %29
  br label %121

36:                                               ; preds = %29
  br label %37

37:                                               ; preds = %36, %28
  %38 = getelementptr inbounds nuw %struct.AVChannelLayout, ptr %5, i32 0, i32 1
  %39 = load i32, ptr %38, align 4, !tbaa !29
  %40 = sext i32 %39 to i64
  %41 = call noalias ptr @av_calloc(i64 noundef %40, i64 noundef 4)
  %42 = load ptr, ptr %4, align 8, !tbaa !22
  %43 = getelementptr inbounds nuw %struct.ChannelSplitContext, ptr %42, i32 0, i32 3
  store ptr %41, ptr %43, align 8, !tbaa !30
  %44 = load ptr, ptr %4, align 8, !tbaa !22
  %45 = getelementptr inbounds nuw %struct.ChannelSplitContext, ptr %44, i32 0, i32 3
  %46 = load ptr, ptr %45, align 8, !tbaa !30
  %47 = icmp ne ptr %46, null
  br i1 %47, label %49, label %48

48:                                               ; preds = %37
  store i32 -12, ptr %2, align 4
  store i32 1, ptr %9, align 4
  br label %123

49:                                               ; preds = %37
  store i32 0, ptr %8, align 4, !tbaa !24
  br label %50

50:                                               ; preds = %117, %49
  %51 = load i32, ptr %8, align 4, !tbaa !24
  %52 = getelementptr inbounds nuw %struct.AVChannelLayout, ptr %5, i32 0, i32 1
  %53 = load i32, ptr %52, align 4, !tbaa !29
  %54 = icmp slt i32 %51, %53
  br i1 %54, label %55, label %120

55:                                               ; preds = %50
  call void @llvm.lifetime.start.p0(i64 4, ptr %10) #7
  %56 = load i32, ptr %8, align 4, !tbaa !24
  %57 = call i32 @av_channel_layout_channel_from_index(ptr noundef %5, i32 noundef %56)
  store i32 %57, ptr %10, align 4, !tbaa !24
  call void @llvm.lifetime.start.p0(i64 64, ptr %11) #7
  call void @llvm.lifetime.start.p0(i64 48, ptr %12) #7
  call void @llvm.memset.p0.i64(ptr align 8 %12, i8 0, i64 48, i1 false)
  %58 = getelementptr inbounds %struct.AVFilterPad, ptr %12, i32 0, i32 2
  store i32 2, ptr %58, align 4
  %59 = getelementptr inbounds [64 x i8], ptr %11, i64 0, i64 0
  %60 = load i32, ptr %10, align 4, !tbaa !24
  %61 = call i32 @av_channel_name(ptr noundef %59, i64 noundef 64, i32 noundef %60)
  %62 = getelementptr inbounds nuw %struct.AVFilterPad, ptr %12, i32 0, i32 1
  store i32 1, ptr %62, align 8, !tbaa !31
  %63 = getelementptr inbounds [64 x i8], ptr %11, i64 0, i64 0
  %64 = call noalias ptr @av_strdup(ptr noundef %63)
  %65 = getelementptr inbounds nuw %struct.AVFilterPad, ptr %12, i32 0, i32 0
  store ptr %64, ptr %65, align 8, !tbaa !33
  %66 = getelementptr inbounds nuw %struct.AVFilterPad, ptr %12, i32 0, i32 0
  %67 = load ptr, ptr %66, align 8, !tbaa !33
  %68 = icmp ne ptr %67, null
  br i1 %68, label %70, label %69

69:                                               ; preds = %55
  store i32 -12, ptr %7, align 4, !tbaa !24
  store i32 2, ptr %9, align 4
  br label %114

70:                                               ; preds = %55
  %71 = load i32, ptr %6, align 4, !tbaa !24
  %72 = icmp ne i32 %71, 0
  br i1 %72, label %73, label %81

73:                                               ; preds = %70
  %74 = load i32, ptr %8, align 4, !tbaa !24
  %75 = load ptr, ptr %4, align 8, !tbaa !22
  %76 = getelementptr inbounds nuw %struct.ChannelSplitContext, ptr %75, i32 0, i32 3
  %77 = load ptr, ptr %76, align 8, !tbaa !30
  %78 = load i32, ptr %8, align 4, !tbaa !24
  %79 = sext i32 %78 to i64
  %80 = getelementptr inbounds i32, ptr %77, i64 %79
  store i32 %74, ptr %80, align 4, !tbaa !24
  br label %108

81:                                               ; preds = %70
  call void @llvm.lifetime.start.p0(i64 128, ptr %13) #7
  %82 = load ptr, ptr %4, align 8, !tbaa !22
  %83 = getelementptr inbounds nuw %struct.ChannelSplitContext, ptr %82, i32 0, i32 1
  %84 = getelementptr inbounds [128 x i8], ptr %13, i64 0, i64 0
  %85 = call i32 @av_channel_layout_describe(ptr noundef %83, ptr noundef %84, i64 noundef 128)
  %86 = load ptr, ptr %4, align 8, !tbaa !22
  %87 = getelementptr inbounds nuw %struct.ChannelSplitContext, ptr %86, i32 0, i32 1
  %88 = load i32, ptr %10, align 4, !tbaa !24
  %89 = call i32 @av_channel_layout_index_from_channel(ptr noundef %87, i32 noundef %88)
  store i32 %89, ptr %7, align 4, !tbaa !24
  %90 = icmp slt i32 %89, 0
  br i1 %90, label %91, label %97

91:                                               ; preds = %81
  %92 = load ptr, ptr %3, align 8, !tbaa !4
  %93 = getelementptr inbounds nuw %struct.AVFilterPad, ptr %12, i32 0, i32 0
  %94 = load ptr, ptr %93, align 8, !tbaa !33
  %95 = getelementptr inbounds [128 x i8], ptr %13, i64 0, i64 0
  call void (ptr, i32, ptr, ...) @av_log(ptr noundef %92, i32 noundef 16, ptr noundef @.str.10, ptr noundef %94, ptr noundef %95)
  %96 = getelementptr inbounds nuw %struct.AVFilterPad, ptr %12, i32 0, i32 0
  call void @av_freep(ptr noundef %96)
  store i32 2, ptr %9, align 4
  br label %105

97:                                               ; preds = %81
  %98 = load i32, ptr %7, align 4, !tbaa !24
  %99 = load ptr, ptr %4, align 8, !tbaa !22
  %100 = getelementptr inbounds nuw %struct.ChannelSplitContext, ptr %99, i32 0, i32 3
  %101 = load ptr, ptr %100, align 8, !tbaa !30
  %102 = load i32, ptr %8, align 4, !tbaa !24
  %103 = sext i32 %102 to i64
  %104 = getelementptr inbounds i32, ptr %101, i64 %103
  store i32 %98, ptr %104, align 4, !tbaa !24
  store i32 0, ptr %9, align 4
  br label %105

105:                                              ; preds = %91, %97
  call void @llvm.lifetime.end.p0(i64 128, ptr %13) #7
  %106 = load i32, ptr %9, align 4
  switch i32 %106, label %114 [
    i32 0, label %107
  ]

107:                                              ; preds = %105
  br label %108

108:                                              ; preds = %107, %73
  %109 = load ptr, ptr %3, align 8, !tbaa !4
  %110 = call i32 @ff_append_outpad(ptr noundef %109, ptr noundef %12)
  store i32 %110, ptr %7, align 4, !tbaa !24
  %111 = icmp slt i32 %110, 0
  br i1 %111, label %112, label %113

112:                                              ; preds = %108
  store i32 2, ptr %9, align 4
  br label %114

113:                                              ; preds = %108
  store i32 0, ptr %9, align 4
  br label %114

114:                                              ; preds = %112, %69, %113, %105
  call void @llvm.lifetime.end.p0(i64 48, ptr %12) #7
  call void @llvm.lifetime.end.p0(i64 64, ptr %11) #7
  call void @llvm.lifetime.end.p0(i64 4, ptr %10) #7
  %115 = load i32, ptr %9, align 4
  switch i32 %115, label %123 [
    i32 0, label %116
    i32 2, label %121
  ]

116:                                              ; preds = %114
  br label %117

117:                                              ; preds = %116
  %118 = load i32, ptr %8, align 4, !tbaa !24
  %119 = add nsw i32 %118, 1
  store i32 %119, ptr %8, align 4, !tbaa !24
  br label %50, !llvm.loop !34

120:                                              ; preds = %50
  br label %121

121:                                              ; preds = %120, %114, %35, %27
  call void @av_channel_layout_uninit(ptr noundef %5)
  %122 = load i32, ptr %7, align 4, !tbaa !24
  store i32 %122, ptr %2, align 4
  store i32 1, ptr %9, align 4
  br label %123

123:                                              ; preds = %121, %114, %48
  call void @llvm.lifetime.end.p0(i64 4, ptr %8) #7
  call void @llvm.lifetime.end.p0(i64 4, ptr %7) #7
  call void @llvm.lifetime.end.p0(i64 4, ptr %6) #7
  call void @llvm.lifetime.end.p0(i64 24, ptr %5) #7
  call void @llvm.lifetime.end.p0(i64 8, ptr %4) #7
  %124 = load i32, ptr %2, align 4
  ret i32 %124
}