; Function Attrs: cold nounwind optsize uwtable
define internal i32 @init(ptr noundef %0) #0 {
  %2 = alloca %struct.AVChannelLayout, align 8
  %3 = alloca [64 x i8], align 16
  %4 = alloca %struct.AVFilterPad, align 8
  %5 = alloca [128 x i8], align 16
  %6 = getelementptr inbounds nuw i8, ptr %0, i64 72
  %7 = load ptr, ptr %6, align 8, !tbaa !4
  call void @llvm.lifetime.start.p0(i64 24, ptr nonnull %2) #6
  call void @llvm.memset.p0.i64(ptr noundef nonnull align 8 dereferenceable(24) %2, i8 0, i64 24, i1 false)
  %8 = getelementptr inbounds nuw i8, ptr %7, i64 32
  %9 = load ptr, ptr %8, align 8, !tbaa !20
  %10 = tail call i32 @strcmp(ptr noundef nonnull dereferenceable(1) %9, ptr noundef nonnull dereferenceable(4) @.str.8) #7
  %.not.not = icmp eq i32 %10, 0
  br i1 %.not.not, label %11, label %15

11:                                               ; preds = %1
  %12 = getelementptr inbounds nuw i8, ptr %7, i64 8
  %13 = call i32 @av_channel_layout_copy(ptr noundef nonnull %2, ptr noundef nonnull %12) #6
  %14 = icmp slt i32 %13, 0
  br i1 %14, label %.loopexit, label %18

15:                                               ; preds = %1
  %16 = call i32 @av_channel_layout_from_string(ptr noundef nonnull %2, ptr noundef nonnull %9) #6
  %17 = icmp slt i32 %16, 0
  br i1 %17, label %.loopexit, label %18

18:                                               ; preds = %11, %15
  %.128 = phi i32 [ %16, %15 ], [ %13, %11 ]
  %19 = getelementptr inbounds nuw i8, ptr %2, i64 4
  %20 = load i32, ptr %19, align 4, !tbaa !24
  %21 = sext i32 %20 to i64
  %22 = call noalias ptr @av_calloc(i64 noundef %21, i64 noundef 4) #6
  %23 = getelementptr inbounds nuw i8, ptr %7, i64 40
  store ptr %22, ptr %23, align 8, !tbaa !25
  %.not37 = icmp eq ptr %22, null
  br i1 %.not37, label %53, label %.preheader

.preheader:                                       ; preds = %18
  %24 = load i32, ptr %19, align 4, !tbaa !24
  %25 = icmp sgt i32 %24, 0
  br i1 %25, label %.lr.ph, label %.loopexit

.lr.ph:                                           ; preds = %.preheader
  %26 = getelementptr inbounds nuw i8, ptr %4, i64 12
  %27 = getelementptr inbounds nuw i8, ptr %4, i64 8
  %28 = getelementptr inbounds nuw i8, ptr %7, i64 8
  br label %29

29:                                               ; preds = %.lr.ph, %49
  %indvars.iv = phi i64 [ 0, %.lr.ph ], [ %indvars.iv.next, %49 ]
  %30 = trunc nuw nsw i64 %indvars.iv to i32
  %31 = call i32 @av_channel_layout_channel_from_index(ptr noundef nonnull %2, i32 noundef %30) #6
  call void @llvm.lifetime.start.p0(i64 64, ptr nonnull %3) #6
  call void @llvm.lifetime.start.p0(i64 48, ptr nonnull %4) #6
  call void @llvm.memset.p0.i64(ptr noundef nonnull align 8 dereferenceable(48) %4, i8 0, i64 48, i1 false)
  store i32 2, ptr %26, align 4
  %32 = call i32 @av_channel_name(ptr noundef nonnull %3, i64 noundef 64, i32 noundef %31) #6
  store i32 1, ptr %27, align 8, !tbaa !26
  %33 = call noalias ptr @av_strdup(ptr noundef nonnull %3) #6
  store ptr %33, ptr %4, align 8, !tbaa !28
  %.not38 = icmp eq ptr %33, null
  br i1 %.not38, label %.thread41, label %34

34:                                               ; preds = %29
  br i1 %.not.not, label %35, label %38

35:                                               ; preds = %34
  %36 = load ptr, ptr %23, align 8, !tbaa !25
  %37 = getelementptr inbounds nuw i32, ptr %36, i64 %indvars.iv
  store i32 %30, ptr %37, align 4, !tbaa !29
  br label %46

38:                                               ; preds = %34
  call void @llvm.lifetime.start.p0(i64 128, ptr nonnull %5) #6
  %39 = call i32 @av_channel_layout_describe(ptr noundef nonnull %28, ptr noundef nonnull %5, i64 noundef 128) #6
  %40 = call i32 @av_channel_layout_index_from_channel(ptr noundef nonnull %28, i32 noundef %31) #6
  %41 = icmp sgt i32 %40, -1
  br i1 %41, label %.thread, label %44

.thread:                                          ; preds = %38
  %42 = load ptr, ptr %23, align 8, !tbaa !25
  %43 = getelementptr inbounds nuw i32, ptr %42, i64 %indvars.iv
  store i32 %40, ptr %43, align 4, !tbaa !29
  call void @llvm.lifetime.end.p0(i64 128, ptr nonnull %5) #6
  br label %46

44:                                               ; preds = %38
  %45 = load ptr, ptr %4, align 8, !tbaa !28
  call void (ptr, i32, ptr, ...) @av_log(ptr noundef %0, i32 noundef 16, ptr noundef nonnull @.str.10, ptr noundef %45, ptr noundef nonnull %5) #6
  call void @av_freep(ptr noundef nonnull %4) #6
  call void @llvm.lifetime.end.p0(i64 128, ptr nonnull %5) #6
  br label %.thread41

46:                                               ; preds = %.thread, %35
  %47 = call i32 @ff_append_outpad(ptr noundef %0, ptr noundef nonnull %4) #6
  %48 = icmp slt i32 %47, 0
  br i1 %48, label %.thread41, label %49

.thread41:                                        ; preds = %29, %46, %44
  %.3.ph = phi i32 [ %40, %44 ], [ %47, %46 ], [ -12, %29 ]
  call void @llvm.lifetime.end.p0(i64 48, ptr nonnull %4) #6
  call void @llvm.lifetime.end.p0(i64 64, ptr nonnull %3) #6
  br label %.loopexit

49:                                               ; preds = %46
  call void @llvm.lifetime.end.p0(i64 48, ptr nonnull %4) #6
  call void @llvm.lifetime.end.p0(i64 64, ptr nonnull %3) #6
  %indvars.iv.next = add nuw nsw i64 %indvars.iv, 1
  %50 = load i32, ptr %19, align 4, !tbaa !24
  %51 = sext i32 %50 to i64
  %52 = icmp slt i64 %indvars.iv.next, %51
  br i1 %52, label %29, label %.loopexit, !llvm.loop !30

.loopexit:                                        ; preds = %49, %.preheader, %.thread41, %15, %11
  %.027 = phi i32 [ %16, %15 ], [ %13, %11 ], [ %.3.ph, %.thread41 ], [ %.128, %.preheader ], [ %47, %49 ]
  call void @av_channel_layout_uninit(ptr noundef nonnull %2) #6
  br label %53

53:                                               ; preds = %18, %.loopexit
  %.0 = phi i32 [ %.027, %.loopexit ], [ -12, %18 ]
  call void @llvm.lifetime.end.p0(i64 24, ptr nonnull %2) #6
  ret i32 %.0
}